; Function Attrs: mustprogress nounwind uwtable
define hidden void @_ZN6google8protobuf2io9TokenizerD2Ev(ptr noundef nonnull readonly align 8 dereferenceable(192) %0) unnamed_addr #7 align 2 personality ptr @__gxx_personality_v0 {
  %2 = getelementptr inbounds nuw i8, ptr %0, i64 144
  %3 = load i32, ptr %2, align 8, !tbaa !43
  %4 = getelementptr inbounds nuw i8, ptr %0, i64 148
  %5 = load i32, ptr %4, align 4, !tbaa !40
  %6 = icmp sgt i32 %3, %5
  br i1 %6, label %7, label %14

7:                                                ; preds = %1
  %8 = getelementptr inbounds nuw i8, ptr %0, i64 112
  %9 = load ptr, ptr %8, align 8, !tbaa !13
  %10 = sub nsw i32 %3, %5
  %11 = load ptr, ptr %9, align 8, !tbaa !41
  %12 = getelementptr inbounds nuw i8, ptr %11, i64 24
  %13 = load ptr, ptr %12, align 8
  invoke void %13(ptr noundef nonnull align 8 dereferenceable(8) %9, i32 noundef %10)
          to label %14 unwind label %29

14:                                               ; preds = %7, %1
  %15 = getelementptr inbounds nuw i8, ptr %0, i64 64
  %16 = load ptr, ptr %15, align 8, !tbaa !48
  %17 = getelementptr inbounds nuw i8, ptr %0, i64 80
  %18 = icmp eq ptr %16, %17
  br i1 %18, label %_ZNKSt7__cxx1112basic_stringIcSt11char_traitsIcESaIcEE11_M_is_localEv.exit.thread.i.i.i, label %_ZNKSt7__cxx1112basic_stringIcSt11char_traitsIcESaIcEE11_M_is_localEv.exit.i.i.i

_ZNKSt7__cxx1112basic_stringIcSt11char_traitsIcESaIcEE11_M_is_localEv.exit.thread.i.i.i: ; preds = %14
  %19 = getelementptr inbounds nuw i8, ptr %0, i64 72
  %20 = load i64, ptr %19, align 8, !tbaa !9
  %21 = icmp ult i64 %20, 16
  tail call void @llvm.assume(i1 %21)
  br label %_ZN6google8protobuf2io9Tokenizer5TokenD2Ev.exit

_ZNKSt7__cxx1112basic_stringIcSt11char_traitsIcESaIcEE11_M_is_localEv.exit.i.i.i: ; preds = %14
  tail call void @_ZdlPv(ptr noundef %16) #25
  br label %_ZN6google8protobuf2io9Tokenizer5TokenD2Ev.exit

_ZN6google8protobuf2io9Tokenizer5TokenD2Ev.exit:  ; preds = %_ZNKSt7__cxx1112basic_stringIcSt11char_traitsIcESaIcEE11_M_is_localEv.exit.thread.i.i.i, %_ZNKSt7__cxx1112basic_stringIcSt11char_traitsIcESaIcEE11_M_is_localEv.exit.i.i.i
  %22 = getelementptr inbounds nuw i8, ptr %0, i64 8
  %23 = load ptr, ptr %22, align 8, !tbaa !48
  %24 = getelementptr inbounds nuw i8, ptr %0, i64 24
  %25 = icmp eq ptr %23, %24
  br i1 %25, label %_ZNKSt7__cxx1112basic_stringIcSt11char_traitsIcESaIcEE11_M_is_localEv.exit.thread.i.i.i3, label %_ZNKSt7__cxx1112basic_stringIcSt11char_traitsIcESaIcEE11_M_is_localEv.exit.i.i.i2

_ZNKSt7__cxx1112basic_stringIcSt11char_traitsIcESaIcEE11_M_is_localEv.exit.thread.i.i.i3: ; preds = %_ZN6google8protobuf2io9Tokenizer5TokenD2Ev.exit
  %26 = getelementptr inbounds nuw i8, ptr %0, i64 16
  %27 = load i64, ptr %26, align 8, !tbaa !9
  %28 = icmp ult i64 %27, 16
  tail call void @llvm.assume(i1 %28)
  br label %_ZN6google8protobuf2io9Tokenizer5TokenD2Ev.exit4

_ZNKSt7__cxx1112basic_stringIcSt11char_traitsIcESaIcEE11_M_is_localEv.exit.i.i.i2: ; preds = %_ZN6google8protobuf2io9Tokenizer5TokenD2Ev.exit
  tail call void @_ZdlPv(ptr noundef %23) #25
  br label %_ZN6google8protobuf2io9Tokenizer5TokenD2Ev.exit4

_ZN6google8protobuf2io9Tokenizer5TokenD2Ev.exit4: ; preds = %_ZNKSt7__cxx1112basic_stringIcSt11char_traitsIcESaIcEE11_M_is_localEv.exit.thread.i.i.i3, %_ZNKSt7__cxx1112basic_stringIcSt11char_traitsIcESaIcEE11_M_is_localEv.exit.i.i.i2
  ret void

29:                                               ; preds = %7
  %30 = landingpad { ptr, i32 }
          catch ptr null
  %31 = extractvalue { ptr, i32 } %30, 0
  tail call void @__clang_call_terminate(ptr %31) #23
  unreachable
}